target datalayout = "e-m:e-p270:32:32-p271:32:32-p272:64:64-i64:64-i128:128-f80:128-n8:16:32:64-S128"
target triple = "x86_64-pc-linux-gnu"

%struct._packet_info = type { ptr, ptr, i32, i32, %struct.nstime_t, %struct.nstime_t, %struct.nstime_t, i8, ptr, ptr, ptr, ptr, %struct._address, %struct._address, %struct._address, %struct._address, %struct._address, %struct._address, i32, ptr, i8, [3 x i8], %struct.anon, i32, i32, i32, i32, ptr, i8, ptr, ptr, i16, i16, i32, i32, i16, i32, i32, ptr, ptr, ptr, i8, i8, i16, i16, i16, i32, i16, i16, ptr, ptr, ptr, ptr, ptr, i32, i32 }
%struct.nstime_t = type { i64, i32 }
%struct._address = type { i32, i32, ptr, ptr }
%struct.anon = type { i8, [3 x i8] }

@.str.286 = private unnamed_addr constant [5 x i8] c"DRDA\00", align 1
@drda_desegment = internal global i8 1, align 1
@drda_tcp_handle = internal global ptr null, align 8

; Function Attrs: null_pointer_is_valid sspstrong uwtable
define internal i32 @dissect_drda_tcp(ptr noundef %0, ptr noundef %1, ptr noundef %2, ptr noundef %3) #0 {
  %5 = alloca ptr, align 8
  %6 = alloca ptr, align 8
  %7 = alloca ptr, align 8
  %8 = alloca ptr, align 8
  store ptr %0, ptr %5, align 8
  store ptr %1, ptr %6, align 8
  store ptr %2, ptr %7, align 8
  store ptr %3, ptr %8, align 8
  %9 = load ptr, ptr %6, align 8
  %10 = getelementptr inbounds nuw %struct._packet_info, ptr %9, i32 0, i32 1
  %11 = load ptr, ptr %10, align 8
  call void @col_set_str(ptr noundef %11, i32 noundef 35, ptr noundef @.str.286)
  %12 = load ptr, ptr %6, align 8
  %13 = getelementptr inbounds nuw %struct._packet_info, ptr %12, i32 0, i32 1
  %14 = load ptr, ptr %13, align 8
  call void @col_clear(ptr noundef %14, i32 noundef 25)
  %15 = load ptr, ptr %5, align 8
  %16 = load ptr, ptr %6, align 8
  %17 = load ptr, ptr %7, align 8
  %18 = load i8, ptr @drda_desegment, align 1, !range !6, !noundef !7
  %19 = trunc i8 %18 to i1
  %20 = load ptr, ptr %8, align 8
  call void @tcp_dissect_pdus(ptr noundef %15, ptr noundef %16, ptr noundef %17, i1 noundef zeroext %19, i32 noundef 10, ptr noundef @get_drda_pdu_len, ptr noundef @dissect_drda_pdu, ptr noundef %20)
  %21 = load ptr, ptr %5, align 8
  %22 = call i32 @tvb_captured_length(ptr noundef %21)
  ret i32 %22
}

; Function Attrs: null_pointer_is_valid sspstrong uwtable
define internal zeroext i1 @dissect_drda_heur(ptr noundef %0, ptr noundef %1, ptr noundef %2, ptr noundef %3) #0 {
  %5 = alloca i1, align 1
  %6 = alloca ptr, align 8
  %7 = alloca ptr, align 8
  %8 = alloca ptr, align 8
  %9 = alloca ptr, align 8
  %10 = alloca ptr, align 8
  %11 = alloca i16, align 2
  %12 = alloca i16, align 2
  %13 = alloca i32, align 4
  store ptr %0, ptr %6, align 8
  store ptr %1, ptr %7, align 8
  store ptr %2, ptr %8, align 8
  store ptr %3, ptr %9, align 8
  call void @llvm.lifetime.start.p0(i64 8, ptr %10) #9
  %14 = load ptr, ptr %6, align 8
  %15 = call i32 @tvb_captured_length(ptr noundef %14)
  %16 = icmp uge i32 %15, 10
  br i1 %16, label %17, label %47

17:                                               ; preds = %4
  call void @llvm.lifetime.start.p0(i64 2, ptr %11) #9
  call void @llvm.lifetime.start.p0(i64 2, ptr %12) #9
  %18 = load ptr, ptr %6, align 8
  %19 = call zeroext i16 @tvb_get_ntohs(ptr noundef %18, i32 noundef 0)
  store i16 %19, ptr %11, align 2
  %20 = load ptr, ptr %6, align 8
  %21 = call zeroext i16 @tvb_get_ntohs(ptr noundef %20, i32 noundef 6)
  store i16 %21, ptr %12, align 2
  %22 = load ptr, ptr %6, align 8
  %23 = call zeroext i8 @tvb_get_uint8(ptr noundef %22, i32 noundef 2)
  %24 = zext i8 %23 to i32
  %25 = icmp eq i32 %24, 208
  br i1 %25, label %26, label %43

26:                                               ; preds = %17
  %27 = load i16, ptr %11, align 2
  %28 = zext i16 %27 to i32
  %29 = load i16, ptr %12, align 2
  %30 = zext i16 %29 to i32
  %31 = sub i32 %28, %30
  %32 = icmp eq i32 %31, 6
  br i1 %32, label %33, label %43

33:                                               ; preds = %26
  %34 = load ptr, ptr %7, align 8
  %35 = call ptr @find_or_create_conversation(ptr noundef %34)
  store ptr %35, ptr %10, align 8
  %36 = load ptr, ptr %10, align 8
  %37 = load ptr, ptr @drda_tcp_handle, align 8
  call void @conversation_set_dissector(ptr noundef %36, ptr noundef %37)
  %38 = load ptr, ptr %6, align 8
  %39 = load ptr, ptr %7, align 8
  %40 = load ptr, ptr %8, align 8
  %41 = load ptr, ptr %9, align 8
  %42 = call i32 @dissect_drda_tcp(ptr noundef %38, ptr noundef %39, ptr noundef %40, ptr noundef %41)
  store i1 true, ptr %5, align 1
  store i32 1, ptr %13, align 4
  br label %44

43:                                               ; preds = %26, %17
  store i32 0, ptr %13, align 4
  br label %44

44:                                               ; preds = %43, %33
  call void @llvm.lifetime.end.p0(i64 2, ptr %12) #9
  call void @llvm.lifetime.end.p0(i64 2, ptr %11) #9
  %45 = load i32, ptr %13, align 4
  switch i32 %45, label %48 [
    i32 0, label %46
  ]

46:                                               ; preds = %44
  br label %47

47:                                               ; preds = %46, %4
  store i1 false, ptr %5, align 1
  store i32 1, ptr %13, align 4
  br label %48

48:                                               ; preds = %47, %44
  call void @llvm.lifetime.end.p0(i64 8, ptr %10) #9
  %49 = load i1, ptr %5, align 1
  ret i1 %49
}