; Function Attrs: null_pointer_is_valid sspstrong uwtable
define internal noundef zeroext i1 @dissect_drda_heur(ptr noundef %0, ptr noundef %1, ptr noundef %2, ptr noundef %3) #0 {
  %5 = tail call i32 @tvb_captured_length(ptr noundef %0)
  %6 = icmp ugt i32 %5, 9
  br i1 %6, label %7, label %25

7:                                                ; preds = %4
  %8 = tail call zeroext i16 @tvb_get_ntohs(ptr noundef %0, i32 noundef 0)
  %9 = tail call zeroext i16 @tvb_get_ntohs(ptr noundef %0, i32 noundef 6)
  %10 = tail call zeroext i8 @tvb_get_uint8(ptr noundef %0, i32 noundef 2)
  %11 = icmp eq i8 %10, -48
  br i1 %11, label %12, label %25

12:                                               ; preds = %7
  %13 = zext i16 %8 to i32
  %14 = zext i16 %9 to i32
  %15 = sub nsw i32 %13, %14
  %16 = icmp eq i32 %15, 6
  br i1 %16, label %.critedge, label %25

.critedge:                                        ; preds = %12
  %17 = tail call ptr @find_or_create_conversation(ptr noundef %1)
  %18 = load ptr, ptr @drda_tcp_handle, align 8
  tail call void @conversation_set_dissector(ptr noundef %17, ptr noundef %18)
  %19 = getelementptr inbounds nuw i8, ptr %1, i64 8
  %20 = load ptr, ptr %19, align 8
  tail call void @col_set_str(ptr noundef %20, i32 noundef 35, ptr noundef nonnull @.str.286)
  %21 = load ptr, ptr %19, align 8
  tail call void @col_clear(ptr noundef %21, i32 noundef 25)
  %22 = load i8, ptr @drda_desegment, align 1, !range !6, !noundef !7
  %23 = trunc nuw i8 %22 to i1
  tail call void @tcp_dissect_pdus(ptr noundef %0, ptr noundef %1, ptr noundef %2, i1 noundef zeroext %23, i32 noundef 10, ptr noundef nonnull @get_drda_pdu_len, ptr noundef nonnull @dissect_drda_pdu, ptr noundef %3)
  %24 = tail call i32 @tvb_captured_length(ptr noundef %0)
  br label %25

25:                                               ; preds = %4, %7, %12, %.critedge
  %.1 = phi i1 [ true, %.critedge ], [ false, %12 ], [ false, %7 ], [ false, %4 ]
  ret i1 %.1
}